Microchip MPLAB XC8 Compiler V2.00 ()

Linker command line:

-W-3 --edf=/Applications/microchip/xc8/v2.00/pic/dat/en_msgs.txt -cs \
  -h+dist/default/debug/ecm.debug.sym \
  --cmf=dist/default/debug/ecm.debug.cmf -z -Q18F4331 -o/tmp/xc2pQYhzy \
  --defsym=__MPLAB_BUILD=1 -Mdist/default/debug/ecm.debug.map -E1 -ver=XC8 \
  --acfsm=1493 -ASTACK=01C8h-02f3h -pstack=STACK -ACODE=00h-01DBFh \
  -ACONST=00h-01DBFh -ASMALLCONST=0300h-03FFhx26,01D00h-01DBFh \
  -AMEDIUMCONST=0300h-01DBFh -ACOMRAM=01h-05Fh -AABS1=00h-02F3h \
  -ABIGRAM=01h-02F3h -ARAM=060h-0FFh,0100h-01FFh,0200h-02F3h \
  -ABANK0=060h-0FFh -ABANK1=0100h-01FFh -ABANK2=0200h-02F3h \
  -ASFR=0F60h-0F9Bh,0F9Dh-0FD3h,0FD5h-0FDAh,0FE0h-0FE2h,0FE8h-0FEAh,0FF0h-0FFCh \
  -preset_vec=00h,intcode=08h,intcodelo,powerup,init -pramtop=0300h \
  -psmallconst=SMALLCONST -pmediumconst=MEDIUMCONST -pconst=CONST \
  -AFARRAM=00h-00h -ACONFIG=0300000h-030000Dh -pconfig=CONFIG \
  -AIDLOC=0200000h-0200007h -pidloc=IDLOC -AEEDATA=0F00000h-0F000FFh \
  -peeprom_data=EEDATA \
  -prdata=COMRAM,nvrram=COMRAM,nvbit=COMRAM,rbss=COMRAM,rbit=COMRAM \
  -pfarbss=FARRAM,fardata=FARRAM,nvFARRAM=FARRAM \
  -pintsave_regs=BIGRAM,bigbss=BIGRAM,bigdata=BIGRAM -pbss=RAM \
  -pidata=CODE,irdata=CODE,ibigdata=CODE,ifardata=CODE -prparam=COMRAM \
  /tmp/xcgndzw2R.o dist/default/debug/ecm.debug.o 

Object code version is 3.11

Machine type is 18F4331

Call graph: (short form)




                Name                               Link     Load   Length Selector   Space Scale
/tmp/xcgndzw2R.o
                init                                 84       84        4        4       0
                reset_vec                             0        0        4        0       0
                idloc                            200000   200000        8   200000       0
                config                           300000   300000        E   300000       0
dist/default/debug/ecm.debug.o
                intcode                               8        8       7C        4       0
                temp                                 4A       4A        1        1       1
                smallconst                          300      300       4E      180       0
                text29                             1538     1538       16      1A7       0
                text28                             11EE     11EE       78      1A7       0
                text27                             145E     145E       2C      1A7       0
                text26                              CFE      CFE       EA      1A7       0
                text25                             10EE     10EE       84      1A7       0
                text24                             148A     148A       26      1A7       0
                text23                              B7C      B7C      182      1A7       0
                text22                             1058     1058       96      1A7       0
                text21                             1398     1398       38      1A7       0
                text20                              FC2      FC2       96      1A7       0
                text19                             14B0     14B0       1E      1A7       0
                text18                             1562     1562       14      1A7       0
                text17                             151E     151E       1A      1A7       0
                text16                             1504     1504       1A      1A7       0
                text15                             14EA     14EA       1A      1A7       0
                text14                             154E     154E       14      1A7       0
                text13                             14CE     14CE       1C      1A7       0
                text12                             1400     1400       30      1A7       0
                text11                             13D0     13D0       30      1A7       0
                text10                             12C4     12C4       52      1A7       0
                text9                              1316     1316       42      1A7       0
                text8                               9EA      9EA      192      1A7       0
                text7                               DE8      DE8       AE      1A7       0
                text6                              1172     1172       7C      1A7       0
                text5                               80C      80C      1DE      1A7       0
                text4                              1266     1266       5E      1A7       0
                text3                              1358     1358       40      1A7       0
                text2                               F2C      F2C       96      1A7       0
                text1                               E96      E96       96      1A7       0
                text0                               34E      34E      4BE      1A7       0
                cstackCOMRAM                          1        1       35        1       1
                cstackBANK0                          60       60       44       60       1
                bssBANK1                            100      100       C8      100       1
                bssBANK0                             A4       A4        3       60       1
                bssCOMRAM                            36       36       14        1       1
                cinit                              1430     1430       2E      1A7       0

TOTAL           Name                               Link     Load   Length     Space
        CLASS   STACK          

        CLASS   CODE           
                intcode                               8        8       7C         0
                init                                 84       84        4         0
                reset_vec                             0        0        4         0
                text29                             1538     1538       16         0
                text28                             11EE     11EE       78         0
                text27                             145E     145E       2C         0
                text26                              CFE      CFE       EA         0
                text25                             10EE     10EE       84         0
                text24                             148A     148A       26         0
                text23                              B7C      B7C      182         0
                text22                             1058     1058       96         0
                text21                             1398     1398       38         0
                text20                              FC2      FC2       96         0
                text19                             14B0     14B0       1E         0
                text18                             1562     1562       14         0
                text17                             151E     151E       1A         0
                text16                             1504     1504       1A         0
                text15                             14EA     14EA       1A         0
                text14                             154E     154E       14         0
                text13                             14CE     14CE       1C         0
                text12                             1400     1400       30         0
                text11                             13D0     13D0       30         0
                text10                             12C4     12C4       52         0
                text9                              1316     1316       42         0
                text8                               9EA      9EA      192         0
                text7                               DE8      DE8       AE         0
                text6                              1172     1172       7C         0
                text5                               80C      80C      1DE         0
                text4                              1266     1266       5E         0
                text3                              1358     1358       40         0
                text2                               F2C      F2C       96         0
                text1                               E96      E96       96         0
                text0                               34E      34E      4BE         0
                cinit                              1430     1430       2E         0

        CLASS   CONST          

        CLASS   SMALLCONST     
                smallconst                          300      300       4E         0

        CLASS   MEDIUMCONST    

        CLASS   COMRAM         
                temp                                 4A       4A        1         1
                cstackCOMRAM                          1        1       35         1
                bssCOMRAM                            36       36       14         1

        CLASS   ABS1           

        CLASS   BIGRAM         

        CLASS   RAM            

        CLASS   BANK0          
                cstackBANK0                          60       60       44         1
                bssBANK0                             A4       A4        3         1

        CLASS   BANK1          
                bssBANK1                            100      100       C8         1

        CLASS   BANK2          

        CLASS   SFR            

        CLASS   FARRAM         

        CLASS   CONFIG         
                config                           300000   300000        E         0

        CLASS   IDLOC          
                idloc                            200000   200000        8         0

        CLASS   EEDATA         



SEGMENTS        Name                           Load    Length   Top    Selector   Space  Class

                reset_vec                      000000  000004  000004         0       0  CODE    
                cstackCOMRAM                   000001  00004A  00004B         1       1  COMRAM  
                intcode                        000008  000080  000088         4       0  CODE    
                cstackBANK0                    000060  000047  0000A7        60       1  BANK0   
                bssBANK1                       000100  0000C8  0001C8       100       1  BANK1   
                smallconst                     000300  00004E  00034E       180       0  SMALLCON
                text0                          00034E  001228  001576       1A7       0  CODE    
                idloc                          200000  000008  200008    200000       0  IDLOC   
                config                         300000  00000E  30000E    300000       0  CONFIG  


UNUSED ADDRESS RANGES

        Name                Unused          Largest block    Delta
        BANK0            0000A7-0000FF               59
        BANK1            0001C8-0001FF               38
        BANK2            000200-0002F3               F4
        BIGRAM           00004B-00005F               15
                         0000A7-0000FF               59
                         0001C8-0002F3              12C
        CODE             000004-000007                4
                         000088-0002FF              278
                         001576-001DBF              84A
        COMRAM           00004B-00005F               15
        CONST            000004-000007                4
                         000088-0002FF              278
                         001576-001DBF              84A
        EEDATA           F00000-F000FF              100
        MEDIUMCONST      001576-001DBF              84A
        RAM              0000A7-0000FF               59
                         0001C8-0002F3               38
        SFR              000F60-000F9B               3C
                         000F9D-000FD3               37
                         000FD5-000FDA                6
                         000FE0-000FE2                3
                         000FE8-000FEA                3
                         000FF0-000FFC                D
        SMALLCONST       001576-001DBF              100
        STACK            0001C8-0002F3              12C

                                  Symbol Table

?___awdiv                      cstackCOMRAM 00000C
?___lwdiv                      cstackCOMRAM 000006
?___lwmod                      cstackCOMRAM 00000D
?___wmul                       cstackCOMRAM 000006
?_sprintf                      cstackCOMRAM 000012
InterruptHandlerHigh@count     bssCOMRAM    000036
InterruptHandlerHigh@rx_char   cstackCOMRAM 000005
LCD_line@line                  cstackCOMRAM 00000A
LCD_out@number                 cstackCOMRAM 000007
LCD_send@Byte                  cstackCOMRAM 000009
LCD_send@type                  cstackCOMRAM 000008
LCD_string@string              cstackCOMRAM 00000A
_ANSEL0                        (abs)        000FB8
_ANSEL1                        (abs)        000FB9
_BAUDCONbits                   (abs)        000FAA
_CAP1BUFH                      (abs)        000F69
_CAP1BUFL                      (abs)        000F68
_CAP1CON                       (abs)        000F63
_CAP2BUFH                      (abs)        000F67
_CAP2BUFL                      (abs)        000F66
_CAP2CON                       (abs)        000F62
_DFLTCON                       (abs)        000F60
_Direction                     bssCOMRAM    000038
_E_TOG                         text29       001538
_INTCON2bits                   (abs)        000FF1
_INTCON3bits                   (abs)        000FF0
_INTCONbits                    (abs)        000FF2
_InterruptHandlerHigh          intcode      000008
_LATA                          (abs)        000F89
_LATB                          (abs)        000F8A
_LATC                          (abs)        000F8B
_LATCbits                      (abs)        000F8B
_LATD                          (abs)        000F8C
_LCD_clear                     text13       0014CE
_LCD_init                      text26       000CFE
_LCD_line                      text12       001400
_LCD_out                       text28       0011EE
_LCD_send                      text27       00145E
_LCD_string                    text11       0013D0
_OSCCON                        (abs)        000FD3
_OSCCONbits                    (abs)        000FD3
_PDC0H                         (abs)        000F78
_PDC0L                         (abs)        000F79
_PDC1H                         (abs)        000F76
_PDC1L                         (abs)        000F77
_PIE1bits                      (abs)        000F9D
_PIR1bits                      (abs)        000F9E
_PORTAbits                     (abs)        000F80
_PORTCbits                     (abs)        000F82
_PORTDbits                     (abs)        000F83
_PTCON0                        (abs)        000F7F
_PTCON1                        (abs)        000F7E
_PTPERH                        (abs)        000F7A
_PTPERL                        (abs)        000F7B
_PWMCON0                       (abs)        000F6F
_PWMCON1                       (abs)        000F6E
_RCONbits                      (abs)        000FD0
_RCREG                         (abs)        000FAE
_RCSTAbits                     (abs)        000FAB
_SPBRG                         (abs)        000FAF
_SPBRGH                        (abs)        000FB0
_T0CONbits                     (abs)        000FD5
_T5CON                         (abs)        000FB7
_T5CONbits                     (abs)        000FB7
_TMR0H                         (abs)        000FD7
_TMR0L                         (abs)        000FD6
_TRISA                         (abs)        000F92
_TRISB                         (abs)        000F93
_TRISC                         (abs)        000F94
_TRISCbits                     (abs)        000F94
_TRISD                         (abs)        000F95
_TXSTAbits                     (abs)        000FAC
__CFG_LVP$OFF                  (abs)        000000
__CFG_MCLRE$OFF                (abs)        000000
__CFG_OSC$IRCIO                (abs)        000000
__HRAM                         (abs)        000000
__Habs1                        abs1         000000
__Hbank0                       bank0        000000
__Hbank1                       bank1        000000
__Hbank2                       bank2        000000
__Hbigbss                      bigbss       000000
__Hbigdata                     bigdata      000000
__Hbigram                      bigram       000000
__Hbss                         bss          000000
__HbssBANK0                    bssBANK0     000000
__HbssBANK1                    bssBANK1     000000
__HbssCOMRAM                   bssCOMRAM    000000
__Hcinit                       cinit        000000
__Hclrtext                     clrtext      000000
__Hcomram                      comram       000000
__Hconfig                      config       30000E
__Hconst                       const        000000
__HcstackBANK0                 cstackBANK0  000000
__HcstackCOMRAM                cstackCOMRAM 000000
__Hdata                        data         000000
__Heeprom_data                 eeprom_data  000000
__Hfarbss                      farbss       000000
__Hfardata                     fardata      000000
__Hibigdata                    ibigdata     000000
__Hidata                       idata        000000
__Hidloc                       idloc        200008
__Hifardata                    ifardata     000000
__Hinit                        init         000088
__Hintcode                     intcode      000084
__Hintcode_body                intcode_body 000000
__Hintcodelo                   intcodelo    000084
__Hintentry                    intentry     000000
__Hintret                      intret       000000
__Hintsave_regs                intsave_regs 000000
__Hirdata                      irdata       000000
__Hmediumconst                 mediumconst  000000
__HnvFARRAM                    nvFARRAM     000000
__Hnvbit                       nvbit        000000
__Hnvrram                      nvrram       000000
__Hparam                       rparam       000000
__Hpowerup                     powerup      000084
__Hram                         ram          000000
__Hramtop                      ramtop       000300
__Hrbit                        rbit         000000
__Hrbss                        rbss         000000
__Hrdata                       rdata        000000
__Hreset_vec                   reset_vec    000004
__Hrparam                      rparam       000000
__Hsfr                         sfr          000000
__Hsmallconst                  smallconst   00034E
__Hspace_0                     (abs)        30000E
__Hspace_1                     (abs)        0001C8
__Hspace_2                     (abs)        000000
__Hstack                       stack        000000
__Hstruct                      struct       000000
__Htemp                        temp         00004B
__Htext                        text         000000
__Htext0                       text0        000000
__Htext1                       text1        000000
__Htext10                      text10       000000
__Htext11                      text11       000000
__Htext12                      text12       000000
__Htext13                      text13       000000
__Htext14                      text14       000000
__Htext15                      text15       000000
__Htext16                      text16       000000
__Htext17                      text17       000000
__Htext18                      text18       000000
__Htext19                      text19       000000
__Htext2                       text2        000000
__Htext20                      text20       000000
__Htext21                      text21       000000
__Htext22                      text22       000000
__Htext23                      text23       000000
__Htext24                      text24       000000
__Htext25                      text25       000000
__Htext26                      text26       000000
__Htext27                      text27       000000
__Htext28                      text28       000000
__Htext29                      text29       000000
__Htext3                       text3        000000
__Htext4                       text4        000000
__Htext5                       text5        000000
__Htext6                       text6        000000
__Htext7                       text7        000000
__Htext8                       text8        000000
__Htext9                       text9        000000
__LRAM                         (abs)        000001
__Labs1                        abs1         000000
__Lbank0                       bank0        000000
__Lbank1                       bank1        000000
__Lbank2                       bank2        000000
__Lbigbss                      bigbss       000000
__Lbigdata                     bigdata      000000
__Lbigram                      bigram       000000
__Lbss                         bss          000000
__LbssBANK0                    bssBANK0     000000
__LbssBANK1                    bssBANK1     000000
__LbssCOMRAM                   bssCOMRAM    000000
__Lcinit                       cinit        000000
__Lclrtext                     clrtext      000000
__Lcomram                      comram       000000
__Lconfig                      config       300000
__Lconst                       const        000000
__LcstackBANK0                 cstackBANK0  000000
__LcstackCOMRAM                cstackCOMRAM 000000
__Ldata                        data         000000
__Leeprom_data                 eeprom_data  000000
__Lfarbss                      farbss       000000
__Lfardata                     fardata      000000
__Libigdata                    ibigdata     000000
__Lidata                       idata        000000
__Lidloc                       idloc        200000
__Lifardata                    ifardata     000000
__Linit                        init         000084
__Lintcode                     intcode      000008
__Lintcode_body                intcode_body 000000
__Lintcodelo                   intcodelo    000084
__Lintentry                    intentry     000000
__Lintret                      intret       000000
__Lintsave_regs                intsave_regs 000000
__Lirdata                      irdata       000000
__Lmediumconst                 mediumconst  000000
__LnvFARRAM                    nvFARRAM     000000
__Lnvbit                       nvbit        000000
__Lnvrram                      nvrram       000000
__Lparam                       rparam       000000
__Lpowerup                     powerup      000084
__Lram                         ram          000000
__Lramtop                      ramtop       000300
__Lrbit                        rbit         000000
__Lrbss                        rbss         000000
__Lrdata                       rdata        000000
__Lreset_vec                   reset_vec    000000
__Lrparam                      rparam       000000
__Lsfr                         sfr          000000
__Lsmallconst                  smallconst   000300
__Lspace_0                     (abs)        000000
__Lspace_1                     (abs)        000000
__Lspace_2                     (abs)        000000
__Lstack                       stack        000000
__Lstruct                      struct       000000
__Ltemp                        temp         00004A
__Ltext                        text         000000
__Ltext0                       text0        000000
__Ltext1                       text1        000000
__Ltext10                      text10       000000
__Ltext11                      text11       000000
__Ltext12                      text12       000000
__Ltext13                      text13       000000
__Ltext14                      text14       000000
__Ltext15                      text15       000000
__Ltext16                      text16       000000
__Ltext17                      text17       000000
__Ltext18                      text18       000000
__Ltext19                      text19       000000
__Ltext2                       text2        000000
__Ltext20                      text20       000000
__Ltext21                      text21       000000
__Ltext22                      text22       000000
__Ltext23                      text23       000000
__Ltext24                      text24       000000
__Ltext25                      text25       000000
__Ltext26                      text26       000000
__Ltext27                      text27       000000
__Ltext28                      text28       000000
__Ltext29                      text29       000000
__Ltext3                       text3        000000
__Ltext4                       text4        000000
__Ltext5                       text5        000000
__Ltext6                       text6        000000
__Ltext7                       text7        000000
__Ltext8                       text8        000000
__Ltext9                       text9        000000
__S0                           (abs)        30000E
__S1                           (abs)        0001C8
__S2                           (abs)        000000
___awdiv                       text25       0010EE
___awdiv@counter               cstackCOMRAM 000010
___awdiv@dividend              cstackCOMRAM 00000C
___awdiv@divisor               cstackCOMRAM 00000E
___awdiv@quotient              cstackCOMRAM 000012
___awdiv@sign                  cstackCOMRAM 000011
___inthi_sp                    stack        000000
___intlo_sp                    stack        000000
___lwdiv                       text10       0012C4
___lwdiv@counter               cstackCOMRAM 00000C
___lwdiv@dividend              cstackCOMRAM 000006
___lwdiv@divisor               cstackCOMRAM 000008
___lwdiv@quotient              cstackCOMRAM 00000A
___lwmod                       text9        001316
___lwmod@counter               cstackCOMRAM 000011
___lwmod@dividend              cstackCOMRAM 00000D
___lwmod@divisor               cstackCOMRAM 00000F
___param_bank                  (abs)        000000
___rparam_used                 (abs)        000001
___sp                          stack        000000
___wmul                        text24       00148A
___wmul@multiplicand           cstackCOMRAM 000008
___wmul@multiplier             cstackCOMRAM 000006
___wmul@product                cstackCOMRAM 00000A
__accesstop                    (abs)        000060
__activetblptr                 (abs)        000002
__end_of_E_TOG                 text29       00154E
__end_of_InterruptHandlerHigh  intcode      000084
__end_of_LCD_clear             text13       0014EA
__end_of_LCD_init              text26       000DE8
__end_of_LCD_line              text12       001430
__end_of_LCD_out               text28       001266
__end_of_LCD_send              text27       00148A
__end_of_LCD_string            text11       001400
__end_of___awdiv               text25       001172
__end_of___lwdiv               text10       001316
__end_of___lwmod               text9        001358
__end_of___wmul                text24       0014B0
__end_of__initialization       cinit        001450
__end_of_backwards             text22       0010EE
__end_of_delay_tenth_s         text21       0013D0
__end_of_dpowers               smallconst   00030B
__end_of_forwards              text20       001058
__end_of_initPWM               text19       0014CE
__end_of_initTIMER0            text18       001576
__end_of_init_RFID             text17       001538
__end_of_init_TIMER5           text16       00151E
__end_of_init_capture          text15       001504
__end_of_interrupt_EUSART      text14       001562
__end_of_main                  text0        00080C
__end_of_print_IR              text7        000E96
__end_of_print_RFID            text6        0011EE
__end_of_read_IR               text5        0009EA
__end_of_setMotorPWM           text23       000CFE
__end_of_sprintf               text8        000B7C
__end_of_stop                  text4        0012C4
__end_of_store                 text3        001398
__end_of_turnLeft              text2        000FC2
__end_of_turnRight             text1        000F2C
__initialization               cinit        001430
__mediumconst                  mediumconst  000000
__pbssBANK0                    bssBANK0     0000A4
__pbssBANK1                    bssBANK1     000100
__pbssCOMRAM                   bssCOMRAM    000036
__pcinit                       cinit        001430
__pcstackBANK0                 cstackBANK0  000060
__pcstackCOMRAM                cstackCOMRAM 000001
__pintcode                     intcode      000008
__psmallconst                  smallconst   000300
__ptext0                       text0        00034E
__ptext1                       text1        000E96
__ptext10                      text10       0012C4
__ptext11                      text11       0013D0
__ptext12                      text12       001400
__ptext13                      text13       0014CE
__ptext14                      text14       00154E
__ptext15                      text15       0014EA
__ptext16                      text16       001504
__ptext17                      text17       00151E
__ptext18                      text18       001562
__ptext19                      text19       0014B0
__ptext2                       text2        000F2C
__ptext20                      text20       000FC2
__ptext21                      text21       001398
__ptext22                      text22       001058
__ptext23                      text23       000B7C
__ptext24                      text24       00148A
__ptext25                      text25       0010EE
__ptext26                      text26       000CFE
__ptext27                      text27       00145E
__ptext28                      text28       0011EE
__ptext29                      text29       001538
__ptext3                       text3        001358
__ptext4                       text4        001266
__ptext5                       text5        00080C
__ptext6                       text6        001172
__ptext7                       text7        000DE8
__ptext8                       text8        0009EA
__ptext9                       text9        001316
__ramtop                       ramtop       000300
__size_of_E_TOG                (abs)        000000
__size_of_InterruptHandlerHigh (abs)        000000
__size_of_LCD_clear            (abs)        000000
__size_of_LCD_init             (abs)        000000
__size_of_LCD_line             (abs)        000000
__size_of_LCD_out              (abs)        000000
__size_of_LCD_send             (abs)        000000
__size_of_LCD_string           (abs)        000000
__size_of___awdiv              (abs)        000000
__size_of___lwdiv              (abs)        000000
__size_of___lwmod              (abs)        000000
__size_of___wmul               (abs)        000000
__size_of_backwards            (abs)        000000
__size_of_delay_tenth_s        (abs)        000000
__size_of_forwards             (abs)        000000
__size_of_initPWM              (abs)        000000
__size_of_initTIMER0           (abs)        000000
__size_of_init_RFID            (abs)        000000
__size_of_init_TIMER5          (abs)        000000
__size_of_init_capture         (abs)        000000
__size_of_interrupt_EUSART     (abs)        000000
__size_of_main                 (abs)        000000
__size_of_print_IR             (abs)        000000
__size_of_print_RFID           (abs)        000000
__size_of_read_IR              (abs)        000000
__size_of_setMotorPWM          (abs)        000000
__size_of_sprintf              (abs)        000000
__size_of_stop                 (abs)        000000
__size_of_store                (abs)        000000
__size_of_turnLeft             (abs)        000000
__size_of_turnRight            (abs)        000000
__smallconst                   smallconst   000300
_backwards                     text22       001058
_card_read                     bssBANK0     0000A6
_count_encoder                 bssCOMRAM    000037
_delay_tenth_s                 text21       001398
_dpowers                       smallconst   000301
_forwards                      text20       000FC2
_forwardsDir                   bssBANK1     000164
_forwardsTime                  bssBANK1     000100
_initPWM                       text19       0014B0
_initTIMER0                    text18       001562
_init_RFID                     text17       00151E
_init_TIMER5                   text16       001504
_init_capture                  text15       0014EA
_interrupt_EUSART              text14       00154E
_main                          text0        00034E
_millis                        bssBANK0     0000A4
_print_IR                      text7        000DE8
_print_RFID                    text6        001172
_read_IR                       text5        00080C
_setMotorPWM                   text23       000B7C
_sprintf                       text8        0009EA
_stop                          text4        001266
_store                         text3        001358
_string_rfid                   bssCOMRAM    000039
_turnLeft                      text2        000F2C
_turnRight                     text1        000E96
backwards@mL                   cstackCOMRAM 00001B
backwards@mR                   cstackCOMRAM 00001D
btemp                          temp         00004A
delay_tenth_s@i                cstackCOMRAM 000008
delay_tenth_s@tenth_seconds    cstackCOMRAM 000007
end_of_initialization          cinit        001450
forwards@mL                    cstackCOMRAM 00001B
forwards@mR                    cstackCOMRAM 00001D
int$flags                      temp         00004A
intlevel0                      text         000000
intlevel1                      text         000000
intlevel2                      text         000000
intlevel3                      text         000000
main@PWMcycle                  cstackBANK0  000080
main@Values                    cstackBANK0  00008A
main@buf                       cstackBANK0  000060
main@buf_793                   cstackBANK0  000070
main@counter                   cstackBANK0  000089
main@diff                      cstackBANK0  000082
main@direction                 cstackBANK0  000087
main@mL                        cstackBANK0  000092
main@mR                        cstackBANK0  00009B
main@threshold                 cstackBANK0  000084
main@time                      cstackBANK0  000086
print_IR@Values                cstackCOMRAM 000020
print_IR@buf                   cstackCOMRAM 000023
print_RFID@dis                 cstackCOMRAM 00000D
print_RFID@pa                  cstackCOMRAM 00000B
read_IR@Values                 cstackCOMRAM 000006
setMotorPWM@PWMduty            cstackCOMRAM 000019
setMotorPWM@m                  cstackCOMRAM 000014
sprintf@ap                     cstackCOMRAM 00001B
sprintf@c                      cstackCOMRAM 00001F
sprintf@f                      cstackCOMRAM 000014
sprintf@flag                   cstackCOMRAM 00001A
sprintf@prec                   cstackCOMRAM 000019
sprintf@sp                     cstackCOMRAM 000012
sprintf@val                    cstackCOMRAM 00001D
stackhi                        (abs)        0002F3
stacklo                        (abs)        0001C8
start                          init         000084
start_initialization           cinit        001430
stop@mL                        cstackCOMRAM 00001B
stop@mR                        cstackCOMRAM 00001D
store@counter                  cstackCOMRAM 00000A
store@dir                      cstackCOMRAM 000006
store@time                     cstackCOMRAM 000007
ttemp5                         temp         00004B
ttemp6                         temp         00004E
ttemp7                         temp         000052
turnLeft@mL                    cstackCOMRAM 00001B
turnLeft@mR                    cstackCOMRAM 00001D
turnRight@mL                   cstackCOMRAM 00001B
turnRight@mR                   cstackCOMRAM 00001D
wtemp8                         temp         00004B


FUNCTION INFORMATION:

 *************** function _main *****************
 Defined at:
		line 94 in file "main.c"
 Parameters:    Size  Location     Type
		None
 Auto vars:     Size  Location     Type
  buf            16   16[BANK0 ] unsigned char [16]
  threshold       2   36[BANK0 ] int 
  diff            2   34[BANK0 ] int 
  buf            16    0[BANK0 ] unsigned char [16]
  direction       2   39[BANK0 ] int 
  mR              9   59[BANK0 ] struct Motor
  mL              9   50[BANK0 ] struct Motor
  Values          8   42[BANK0 ] struct Sensor_ir
  PWMcycle        2   32[BANK0 ] int 
  counter         1   41[BANK0 ] unsigned char 
  time            1   38[BANK0 ] unsigned char 
 Return value:  Size  Location     Type
                  1    wreg      void 
 Registers used:
		wreg, fsr1l, fsr1h, fsr2l, fsr2h, status,2, status,0, tblptrl, tblptrh, tblptru, prodl, prodh, cstack
 Tracked objects:
		On entry : 
		On exit  : 
		Unchanged: 
 Data sizes:     COMRAM   BANK0   BANK1   BANK2
      Params:         0       0       0       0
      Locals:         0      68       0       0
      Temps:          3       0       0       0
      Totals:         3      68       0       0
Total ram usage:       71 bytes
 Hardware stack levels required when called:    6
 This function calls:
		_LCD_clear
		_LCD_init
		_LCD_line
		_LCD_string
		_backwards
		_delay_tenth_s
		_forwards
		_initPWM
		_initTIMER0
		_init_RFID
		_init_TIMER5
		_init_capture
		_interrupt_EUSART
		_print_IR
		_print_RFID
		_read_IR
		_sprintf
		_stop
		_store
		_turnLeft
		_turnRight
 This function is called by:
		Startup code after reset
 This function uses a non-reentrant model


 *************** function _turnRight *****************
 Defined at:
		line 114 in file "motor.c"
 Parameters:    Size  Location     Type
  mL              2   26[COMRAM] PTR struct Motor
		 -> main@mL(9), 
  mR              2   28[COMRAM] PTR struct Motor
		 -> main@mR(9), 
 Auto vars:     Size  Location     Type
		None
 Return value:  Size  Location     Type
                  1    wreg      void 
 Registers used:
		wreg, fsr2l, fsr2h, status,2, status,0, prodl, prodh, cstack
 Tracked objects:
		On entry : 
		On exit  : 
		Unchanged: 
 Data sizes:     COMRAM   BANK0   BANK1   BANK2
      Params:         4       0       0       0
      Locals:         0       0       0       0
      Temps:          1       0       0       0
      Totals:         5       0       0       0
Total ram usage:        5 bytes
 Hardware stack levels used:    1
 Hardware stack levels required when called:    3
 This function calls:
		_setMotorPWM
 This function is called by:
		_main
 This function uses a non-reentrant model


 *************** function _turnLeft *****************
 Defined at:
		line 95 in file "motor.c"
 Parameters:    Size  Location     Type
  mL              2   26[COMRAM] PTR struct Motor
		 -> main@mL(9), 
  mR              2   28[COMRAM] PTR struct Motor
		 -> main@mR(9), 
 Auto vars:     Size  Location     Type
		None
 Return value:  Size  Location     Type
                  1    wreg      void 
 Registers used:
		wreg, fsr2l, fsr2h, status,2, status,0, prodl, prodh, cstack
 Tracked objects:
		On entry : 
		On exit  : 
		Unchanged: 
 Data sizes:     COMRAM   BANK0   BANK1   BANK2
      Params:         4       0       0       0
      Locals:         0       0       0       0
      Temps:          1       0       0       0
      Totals:         5       0       0       0
Total ram usage:        5 bytes
 Hardware stack levels used:    1
 Hardware stack levels required when called:    3
 This function calls:
		_setMotorPWM
 This function is called by:
		_main
 This function uses a non-reentrant model


 *************** function _store *****************
 Defined at:
		line 69 in file "main.c"
 Parameters:    Size  Location     Type
  counter         1    wreg     unsigned char 
  dir             1    5[COMRAM] unsigned char 
  time            1    6[COMRAM] unsigned char 
 Auto vars:     Size  Location     Type
  counter         1    9[COMRAM] unsigned char 
 Return value:  Size  Location     Type
                  1    wreg      void 
 Registers used:
		wreg, fsr2l, fsr2h, status,2, status,0, prodl, prodh
 Tracked objects:
		On entry : 
		On exit  : 
		Unchanged: 
 Data sizes:     COMRAM   BANK0   BANK1   BANK2
      Params:         2       0       0       0
      Locals:         1       0       0       0
      Temps:          2       0       0       0
      Totals:         5       0       0       0
Total ram usage:        5 bytes
 Hardware stack levels used:    1
 Hardware stack levels required when called:    1
 This function calls:
		Nothing
 This function is called by:
		_main
 This function uses a non-reentrant model


 *************** function _stop *****************
 Defined at:
		line 71 in file "motor.c"
 Parameters:    Size  Location     Type
  mL              2   26[COMRAM] PTR struct Motor
		 -> main@mL(9), 
  mR              2   28[COMRAM] PTR struct Motor
		 -> main@mR(9), 
 Auto vars:     Size  Location     Type
		None
 Return value:  Size  Location     Type
                  1    wreg      void 
 Registers used:
		wreg, fsr2l, fsr2h, status,2, status,0, prodl, prodh, cstack
 Tracked objects:
		On entry : 
		On exit  : 
		Unchanged: 
 Data sizes:     COMRAM   BANK0   BANK1   BANK2
      Params:         4       0       0       0
      Locals:         0       0       0       0
      Temps:          1       0       0       0
      Totals:         5       0       0       0
Total ram usage:        5 bytes
 Hardware stack levels used:    1
 Hardware stack levels required when called:    3
 This function calls:
		_setMotorPWM
 This function is called by:
		_main
 This function uses a non-reentrant model


 *************** function _read_IR *****************
 Defined at:
		line 38 in file "ir.c"
 Parameters:    Size  Location     Type
  Values          2    5[COMRAM] PTR struct Sensor_ir
		 -> main@Values(8), 
 Auto vars:     Size  Location     Type
		None
 Return value:  Size  Location     Type
                  1    wreg      void 
 Registers used:
		wreg, fsr1l, fsr1h, fsr2l, fsr2h, status,2, status,0
 Tracked objects:
		On entry : 
		On exit  : 
		Unchanged: 
 Data sizes:     COMRAM   BANK0   BANK1   BANK2
      Params:         2       0       0       0
      Locals:         0       0       0       0
      Temps:          4       0       0       0
      Totals:         6       0       0       0
Total ram usage:        6 bytes
 Hardware stack levels used:    1
 Hardware stack levels required when called:    1
 This function calls:
		Nothing
 This function is called by:
		_main
 This function uses a non-reentrant model


 *************** function _print_RFID *****************
 Defined at:
		line 27 in file "rfid.c"
 Parameters:    Size  Location     Type
  pa              2   10[COMRAM] PTR unsigned char 
		 -> string_rfid(17), 
  dis             2   12[COMRAM] PTR unsigned char 
		 -> string_rfid(17), 
 Auto vars:     Size  Location     Type
		None
 Return value:  Size  Location     Type
                  1    wreg      void 
 Registers used:
		wreg, fsr2l, fsr2h, status,2, status,0, cstack
 Tracked objects:
		On entry : 
		On exit  : 
		Unchanged: 
 Data sizes:     COMRAM   BANK0   BANK1   BANK2
      Params:         4       0       0       0
      Locals:         0       0       0       0
      Temps:          6       0       0       0
      Totals:        10       0       0       0
Total ram usage:       10 bytes
 Hardware stack levels used:    1
 Hardware stack levels required when called:    5
 This function calls:
		_LCD_clear
		_LCD_line
		_LCD_send
 This function is called by:
		_main
 This function uses a non-reentrant model


 *************** function _print_IR *****************
 Defined at:
		line 123 in file "lcd.c"
 Parameters:    Size  Location     Type
  Values          2   31[COMRAM] PTR struct Sensor_ir
		 -> main@Values(8), 
 Auto vars:     Size  Location     Type
  buf            16   34[COMRAM] unsigned char [16]
 Return value:  Size  Location     Type
                  1    wreg      void 
 Registers used:
		wreg, fsr2l, fsr2h, status,2, status,0, tblptrl, tblptrh, tblptru, prodl, prodh, cstack
 Tracked objects:
		On entry : 
		On exit  : 
		Unchanged: 
 Data sizes:     COMRAM   BANK0   BANK1   BANK2
      Params:         2       0       0       0
      Locals:        16       0       0       0
      Temps:          1       0       0       0
      Totals:        19       0       0       0
Total ram usage:       19 bytes
 Hardware stack levels used:    1
 Hardware stack levels required when called:    5
 This function calls:
		_LCD_clear
		_LCD_line
		_LCD_string
		_sprintf
 This function is called by:
		_main
 This function uses a non-reentrant model


 *************** function _sprintf *****************
 Defined at:
		line 500 in file "/Applications/microchip/xc8/v2.00/pic/sources/c90/common/doprnt.c"
 Parameters:    Size  Location     Type
  sp              2   17[COMRAM] PTR unsigned char 
		 -> check_sum@buf_cs(16), main@buf_793(16), main@buf(16), print_IR@buf(16), 
  f               2   19[COMRAM] PTR const unsigned char 
		 -> STR_6(16), STR_5(14), STR_4(10), STR_3(6), 
		 -> STR_2(10), STR_1(9), 
 Auto vars:     Size  Location     Type
  tmpval          4    0        struct .
  cp              3    0        PTR const unsigned char 
  val             2   28[COMRAM] unsigned int 
  ap              2   26[COMRAM] PTR void [1]
		 -> ?_sprintf(2), 
  len             2    0        unsigned int 
  c               1   30[COMRAM] unsigned char 
  flag            1   25[COMRAM] unsigned char 
  prec            1   24[COMRAM] char 
 Return value:  Size  Location     Type
                  2   17[COMRAM] int 
 Registers used:
		wreg, fsr2l, fsr2h, status,2, status,0, tblptrl, tblptrh, tblptru, prodl, prodh, cstack
 Tracked objects:
		On entry : 
		On exit  : 
		Unchanged: 
 Data sizes:     COMRAM   BANK0   BANK1   BANK2
      Params:         6       0       0       0
      Locals:         7       0       0       0
      Temps:          1       0       0       0
      Totals:        14       0       0       0
Total ram usage:       14 bytes
 Hardware stack levels used:    1
 Hardware stack levels required when called:    2
 This function calls:
		___lwdiv
		___lwmod
 This function is called by:
		_print_IR
		_main
		_check_sum
 This function uses a non-reentrant model


 *************** function ___lwmod *****************
 Defined at:
		line 7 in file "/Applications/microchip/xc8/v2.00/pic/sources/c90/common/lwmod.c"
 Parameters:    Size  Location     Type
  dividend        2   12[COMRAM] unsigned int 
  divisor         2   14[COMRAM] unsigned int 
 Auto vars:     Size  Location     Type
  counter         1   16[COMRAM] unsigned char 
 Return value:  Size  Location     Type
                  2   12[COMRAM] unsigned int 
 Registers used:
		wreg, status,2, status,0
 Tracked objects:
		On entry : 
		On exit  : 
		Unchanged: 
 Data sizes:     COMRAM   BANK0   BANK1   BANK2
      Params:         4       0       0       0
      Locals:         1       0       0       0
      Temps:          0       0       0       0
      Totals:         5       0       0       0
Total ram usage:        5 bytes
 Hardware stack levels used:    1
 Hardware stack levels required when called:    1
 This function calls:
		Nothing
 This function is called by:
		_sprintf
 This function uses a non-reentrant model


 *************** function ___lwdiv *****************
 Defined at:
		line 7 in file "/Applications/microchip/xc8/v2.00/pic/sources/c90/common/lwdiv.c"
 Parameters:    Size  Location     Type
  dividend        2    5[COMRAM] unsigned int 
  divisor         2    7[COMRAM] unsigned int 
 Auto vars:     Size  Location     Type
  quotient        2    9[COMRAM] unsigned int 
  counter         1   11[COMRAM] unsigned char 
 Return value:  Size  Location     Type
                  2    5[COMRAM] unsigned int 
 Registers used:
		wreg, status,2, status,0
 Tracked objects:
		On entry : 
		On exit  : 
		Unchanged: 
 Data sizes:     COMRAM   BANK0   BANK1   BANK2
      Params:         4       0       0       0
      Locals:         3       0       0       0
      Temps:          0       0       0       0
      Totals:         7       0       0       0
Total ram usage:        7 bytes
 Hardware stack levels used:    1
 Hardware stack levels required when called:    1
 This function calls:
		Nothing
 This function is called by:
		_sprintf
 This function uses a non-reentrant model


 *************** function _LCD_string *****************
 Defined at:
		line 101 in file "lcd.c"
 Parameters:    Size  Location     Type
  string          2    9[COMRAM] PTR unsigned char 
		 -> check_sum@buf_cs(16), main@buf_793(16), main@buf(16), print_IR@buf(16), 
 Auto vars:     Size  Location     Type
		None
 Return value:  Size  Location     Type
                  1    wreg      void 
 Registers used:
		wreg, fsr2l, fsr2h, status,2, status,0, cstack
 Tracked objects:
		On entry : 
		On exit  : 
		Unchanged: 
 Data sizes:     COMRAM   BANK0   BANK1   BANK2
      Params:         2       0       0       0
      Locals:         0       0       0       0
      Temps:          0       0       0       0
      Totals:         2       0       0       0
Total ram usage:        2 bytes
 Hardware stack levels used:    1
 Hardware stack levels required when called:    4
 This function calls:
		_LCD_send
 This function is called by:
		_print_IR
		_main
		_check_sum
 This function uses a non-reentrant model


 *************** function _LCD_line *****************
 Defined at:
		line 89 in file "lcd.c"
 Parameters:    Size  Location     Type
  line            1    wreg     unsigned char 
 Auto vars:     Size  Location     Type
  line            1    9[COMRAM] unsigned char 
 Return value:  Size  Location     Type
                  1    wreg      void 
 Registers used:
		wreg, status,2, status,0, cstack
 Tracked objects:
		On entry : 
		On exit  : 
		Unchanged: 
 Data sizes:     COMRAM   BANK0   BANK1   BANK2
      Params:         0       0       0       0
      Locals:         1       0       0       0
      Temps:          0       0       0       0
      Totals:         1       0       0       0
Total ram usage:        1 bytes
 Hardware stack levels used:    1
 Hardware stack levels required when called:    4
 This function calls:
		_LCD_send
 This function is called by:
		_print_IR
		_main
		_print_RFID
 This function uses a non-reentrant model


 *************** function _LCD_clear *****************
 Defined at:
		line 115 in file "lcd.c"
 Parameters:    Size  Location     Type
		None
 Auto vars:     Size  Location     Type
		None
 Return value:  Size  Location     Type
                  1    wreg      void 
 Registers used:
		wreg, status,2, status,0, cstack
 Tracked objects:
		On entry : 
		On exit  : 
		Unchanged: 
 Data sizes:     COMRAM   BANK0   BANK1   BANK2
      Params:         0       0       0       0
      Locals:         0       0       0       0
      Temps:          1       0       0       0
      Totals:         1       0       0       0
Total ram usage:        1 bytes
 Hardware stack levels used:    1
 Hardware stack levels required when called:    4
 This function calls:
		_LCD_send
 This function is called by:
		_print_IR
		_main
		_print_RFID
 This function uses a non-reentrant model


 *************** function _interrupt_EUSART *****************
 Defined at:
		line 14 in file "rfid.c"
 Parameters:    Size  Location     Type
		None
 Auto vars:     Size  Location     Type
		None
 Return value:  Size  Location     Type
                  1    wreg      void 
 Registers used:
		wreg
 Tracked objects:
		On entry : 
		On exit  : 
		Unchanged: 
 Data sizes:     COMRAM   BANK0   BANK1   BANK2
      Params:         0       0       0       0
      Locals:         0       0       0       0
      Temps:          0       0       0       0
      Totals:         0       0       0       0
Total ram usage:        0 bytes
 Hardware stack levels used:    1
 Hardware stack levels required when called:    1
 This function calls:
		Nothing
 This function is called by:
		_main
 This function uses a non-reentrant model


 *************** function _init_capture *****************
 Defined at:
		line 25 in file "ir.c"
 Parameters:    Size  Location     Type
		None
 Auto vars:     Size  Location     Type
		None
 Return value:  Size  Location     Type
                  1    wreg      void 
 Registers used:
		wreg, status,2
 Tracked objects:
		On entry : 
		On exit  : 
		Unchanged: 
 Data sizes:     COMRAM   BANK0   BANK1   BANK2
      Params:         0       0       0       0
      Locals:         0       0       0       0
      Temps:          0       0       0       0
      Totals:         0       0       0       0
Total ram usage:        0 bytes
 Hardware stack levels used:    1
 Hardware stack levels required when called:    1
 This function calls:
		Nothing
 This function is called by:
		_main
 This function uses a non-reentrant model


 *************** function _init_TIMER5 *****************
 Defined at:
		line 6 in file "ir.c"
 Parameters:    Size  Location     Type
		None
 Auto vars:     Size  Location     Type
		None
 Return value:  Size  Location     Type
                  1    wreg      void 
 Registers used:
		wreg, status,2
 Tracked objects:
		On entry : 
		On exit  : 
		Unchanged: 
 Data sizes:     COMRAM   BANK0   BANK1   BANK2
      Params:         0       0       0       0
      Locals:         0       0       0       0
      Temps:          0       0       0       0
      Totals:         0       0       0       0
Total ram usage:        0 bytes
 Hardware stack levels used:    1
 Hardware stack levels required when called:    1
 This function calls:
		Nothing
 This function is called by:
		_main
 This function uses a non-reentrant model


 *************** function _init_RFID *****************
 Defined at:
		line 3 in file "rfid.c"
 Parameters:    Size  Location     Type
		None
 Auto vars:     Size  Location     Type
		None
 Return value:  Size  Location     Type
                  1    wreg      void 
 Registers used:
		wreg, status,2, status,0
 Tracked objects:
		On entry : 
		On exit  : 
		Unchanged: 
 Data sizes:     COMRAM   BANK0   BANK1   BANK2
      Params:         0       0       0       0
      Locals:         0       0       0       0
      Temps:          0       0       0       0
      Totals:         0       0       0       0
Total ram usage:        0 bytes
 Hardware stack levels used:    1
 Hardware stack levels required when called:    1
 This function calls:
		Nothing
 This function is called by:
		_main
 This function uses a non-reentrant model


 *************** function _initTIMER0 *****************
 Defined at:
		line 82 in file "main.c"
 Parameters:    Size  Location     Type
		None
 Auto vars:     Size  Location     Type
		None
 Return value:  Size  Location     Type
                  1    wreg      void 
 Registers used:
		wreg, status,2
 Tracked objects:
		On entry : 
		On exit  : 
		Unchanged: 
 Data sizes:     COMRAM   BANK0   BANK1   BANK2
      Params:         0       0       0       0
      Locals:         0       0       0       0
      Temps:          0       0       0       0
      Totals:         0       0       0       0
Total ram usage:        0 bytes
 Hardware stack levels used:    1
 Hardware stack levels required when called:    1
 This function calls:
		Nothing
 This function is called by:
		_main
 This function uses a non-reentrant model


 *************** function _initPWM *****************
 Defined at:
		line 10 in file "motor.c"
 Parameters:    Size  Location     Type
		None
 Auto vars:     Size  Location     Type
		None
 Return value:  Size  Location     Type
                  1    wreg      void 
 Registers used:
		wreg, status,2
 Tracked objects:
		On entry : 
		On exit  : 
		Unchanged: 
 Data sizes:     COMRAM   BANK0   BANK1   BANK2
      Params:         0       0       0       0
      Locals:         0       0       0       0
      Temps:          0       0       0       0
      Totals:         0       0       0       0
Total ram usage:        0 bytes
 Hardware stack levels used:    1
 Hardware stack levels required when called:    1
 This function calls:
		Nothing
 This function is called by:
		_main
 This function uses a non-reentrant model


 *************** function _forwards *****************
 Defined at:
		line 152 in file "motor.c"
 Parameters:    Size  Location     Type
  mL              2   26[COMRAM] PTR struct Motor
		 -> main@mL(9), 
  mR              2   28[COMRAM] PTR struct Motor
		 -> main@mR(9), 
 Auto vars:     Size  Location     Type
		None
 Return value:  Size  Location     Type
                  1    wreg      void 
 Registers used:
		wreg, fsr2l, fsr2h, status,2, status,0, prodl, prodh, cstack
 Tracked objects:
		On entry : 
		On exit  : 
		Unchanged: 
 Data sizes:     COMRAM   BANK0   BANK1   BANK2
      Params:         4       0       0       0
      Locals:         0       0       0       0
      Temps:          1       0       0       0
      Totals:         5       0       0       0
Total ram usage:        5 bytes
 Hardware stack levels used:    1
 Hardware stack levels required when called:    3
 This function calls:
		_setMotorPWM
 This function is called by:
		_main
 This function uses a non-reentrant model


 *************** function _delay_tenth_s *****************
 Defined at:
		line 74 in file "main.c"
 Parameters:    Size  Location     Type
  tenth_second    1    wreg     unsigned char 
 Auto vars:     Size  Location     Type
  tenth_second    1    6[COMRAM] unsigned char 
  i               2    7[COMRAM] unsigned int 
 Return value:  Size  Location     Type
                  1    wreg      void 
 Registers used:
		wreg, status,2, status,0, prodl, prodh, cstack
 Tracked objects:
		On entry : 
		On exit  : 
		Unchanged: 
 Data sizes:     COMRAM   BANK0   BANK1   BANK2
      Params:         0       0       0       0
      Locals:         3       0       0       0
      Temps:          1       0       0       0
      Totals:         4       0       0       0
Total ram usage:        4 bytes
 Hardware stack levels used:    1
 Hardware stack levels required when called:    1
 This function calls:
		Nothing
 This function is called by:
		_main
 This function uses a non-reentrant model


 *************** function _backwards *****************
 Defined at:
		line 181 in file "motor.c"
 Parameters:    Size  Location     Type
  mL              2   26[COMRAM] PTR struct Motor
		 -> main@mL(9), 
  mR              2   28[COMRAM] PTR struct Motor
		 -> main@mR(9), 
 Auto vars:     Size  Location     Type
		None
 Return value:  Size  Location     Type
                  1    wreg      void 
 Registers used:
		wreg, fsr2l, fsr2h, status,2, status,0, prodl, prodh, cstack
 Tracked objects:
		On entry : 
		On exit  : 
		Unchanged: 
 Data sizes:     COMRAM   BANK0   BANK1   BANK2
      Params:         4       0       0       0
      Locals:         0       0       0       0
      Temps:          1       0       0       0
      Totals:         5       0       0       0
Total ram usage:        5 bytes
 Hardware stack levels used:    1
 Hardware stack levels required when called:    3
 This function calls:
		_setMotorPWM
 This function is called by:
		_main
 This function uses a non-reentrant model


 *************** function _setMotorPWM *****************
 Defined at:
		line 24 in file "motor.c"
 Parameters:    Size  Location     Type
  m               2   19[COMRAM] PTR struct Motor
		 -> main@mR(9), main@mL(9), 
 Auto vars:     Size  Location     Type
  PWMduty         2   24[COMRAM] int 
 Return value:  Size  Location     Type
                  1    wreg      void 
 Registers used:
		wreg, fsr2l, fsr2h, status,2, status,0, prodl, prodh, cstack
 Tracked objects:
		On entry : 
		On exit  : 
		Unchanged: 
 Data sizes:     COMRAM   BANK0   BANK1   BANK2
      Params:         2       0       0       0
      Locals:         2       0       0       0
      Temps:          3       0       0       0
      Totals:         7       0       0       0
Total ram usage:        7 bytes
 Hardware stack levels used:    1
 Hardware stack levels required when called:    2
 This function calls:
		___awdiv
		___wmul
 This function is called by:
		_stop
		_turnLeft
		_turnRight
		_forwards
		_backwards
		_accelerate
		_accelerate2
		_decelerate
		_smoothRight
		_smoothLeft
 This function uses a non-reentrant model


 *************** function ___wmul *****************
 Defined at:
		line 15 in file "/Applications/microchip/xc8/v2.00/pic/sources/c90/common/Umul16.c"
 Parameters:    Size  Location     Type
  multiplier      2    5[COMRAM] unsigned int 
  multiplicand    2    7[COMRAM] unsigned int 
 Auto vars:     Size  Location     Type
  product         2    9[COMRAM] unsigned int 
 Return value:  Size  Location     Type
                  2    5[COMRAM] unsigned int 
 Registers used:
		wreg, status,2, status,0, prodl, prodh
 Tracked objects:
		On entry : 
		On exit  : 
		Unchanged: 
 Data sizes:     COMRAM   BANK0   BANK1   BANK2
      Params:         4       0       0       0
      Locals:         2       0       0       0
      Temps:          0       0       0       0
      Totals:         6       0       0       0
Total ram usage:        6 bytes
 Hardware stack levels used:    1
 Hardware stack levels required when called:    1
 This function calls:
		Nothing
 This function is called by:
		_setMotorPWM
 This function uses a non-reentrant model


 *************** function ___awdiv *****************
 Defined at:
		line 7 in file "/Applications/microchip/xc8/v2.00/pic/sources/c90/common/awdiv.c"
 Parameters:    Size  Location     Type
  dividend        2   11[COMRAM] int 
  divisor         2   13[COMRAM] int 
 Auto vars:     Size  Location     Type
  quotient        2   17[COMRAM] int 
  sign            1   16[COMRAM] unsigned char 
  counter         1   15[COMRAM] unsigned char 
 Return value:  Size  Location     Type
                  2   11[COMRAM] int 
 Registers used:
		wreg, status,2, status,0
 Tracked objects:
		On entry : 
		On exit  : 
		Unchanged: 
 Data sizes:     COMRAM   BANK0   BANK1   BANK2
      Params:         4       0       0       0
      Locals:         4       0       0       0
      Temps:          0       0       0       0
      Totals:         8       0       0       0
Total ram usage:        8 bytes
 Hardware stack levels used:    1
 Hardware stack levels required when called:    1
 This function calls:
		Nothing
 This function is called by:
		_setMotorPWM
 This function uses a non-reentrant model


 *************** function _LCD_init *****************
 Defined at:
		line 49 in file "lcd.c"
 Parameters:    Size  Location     Type
		None
 Auto vars:     Size  Location     Type
		None
 Return value:  Size  Location     Type
                  1    wreg      void 
 Registers used:
		wreg, status,2, status,0, cstack
 Tracked objects:
		On entry : 
		On exit  : 
		Unchanged: 
 Data sizes:     COMRAM   BANK0   BANK1   BANK2
      Params:         0       0       0       0
      Locals:         0       0       0       0
      Temps:          1       0       0       0
      Totals:         1       0       0       0
Total ram usage:        1 bytes
 Hardware stack levels used:    1
 Hardware stack levels required when called:    4
 This function calls:
		_LCD_out
		_LCD_send
 This function is called by:
		_main
 This function uses a non-reentrant model


 *************** function _LCD_send *****************
 Defined at:
		line 34 in file "lcd.c"
 Parameters:    Size  Location     Type
  Byte            1    wreg     unsigned char 
  type            1    7[COMRAM] unsigned char 
 Auto vars:     Size  Location     Type
  Byte            1    8[COMRAM] unsigned char 
 Return value:  Size  Location     Type
                  1    wreg      void 
 Registers used:
		wreg, status,2, status,0, cstack
 Tracked objects:
		On entry : 
		On exit  : 
		Unchanged: 
 Data sizes:     COMRAM   BANK0   BANK1   BANK2
      Params:         1       0       0       0
      Locals:         1       0       0       0
      Temps:          0       0       0       0
      Totals:         2       0       0       0
Total ram usage:        2 bytes
 Hardware stack levels used:    1
 Hardware stack levels required when called:    3
 This function calls:
		_LCD_out
 This function is called by:
		_LCD_init
		_LCD_line
		_LCD_string
		_LCD_clear
		_print_RFID
 This function uses a non-reentrant model


 *************** function _LCD_out *****************
 Defined at:
		line 19 in file "lcd.c"
 Parameters:    Size  Location     Type
  number          1    wreg     unsigned char 
 Auto vars:     Size  Location     Type
  number          1    6[COMRAM] unsigned char 
 Return value:  Size  Location     Type
                  1    wreg      void 
 Registers used:
		wreg, status,2, status,0, cstack
 Tracked objects:
		On entry : 
		On exit  : 
		Unchanged: 
 Data sizes:     COMRAM   BANK0   BANK1   BANK2
      Params:         0       0       0       0
      Locals:         1       0       0       0
      Temps:          1       0       0       0
      Totals:         2       0       0       0
Total ram usage:        2 bytes
 Hardware stack levels used:    1
 Hardware stack levels required when called:    2
 This function calls:
		_E_TOG
 This function is called by:
		_LCD_send
		_LCD_init
 This function uses a non-reentrant model


 *************** function _E_TOG *****************
 Defined at:
		line 4 in file "lcd.c"
 Parameters:    Size  Location     Type
		None
 Auto vars:     Size  Location     Type
		None
 Return value:  Size  Location     Type
                  1    wreg      void 
 Registers used:
		wreg
 Tracked objects:
		On entry : 
		On exit  : 
		Unchanged: 
 Data sizes:     COMRAM   BANK0   BANK1   BANK2
      Params:         0       0       0       0
      Locals:         0       0       0       0
      Temps:          0       0       0       0
      Totals:         0       0       0       0
Total ram usage:        0 bytes
 Hardware stack levels used:    1
 Hardware stack levels required when called:    1
 This function calls:
		Nothing
 This function is called by:
		_LCD_out
 This function uses a non-reentrant model


 *************** function _InterruptHandlerHigh *****************
 Defined at:
		line 24 in file "main.c"
 Parameters:    Size  Location     Type
		None
 Auto vars:     Size  Location     Type
  rx_char         1    4[COMRAM] unsigned char 
 Return value:  Size  Location     Type
                  1    wreg      void 
 Registers used:
		wreg, fsr2l, fsr2h, status,2, status,0, prodl, prodh
 Tracked objects:
		On entry : 
		On exit  : 
		Unchanged: 
 Data sizes:     COMRAM   BANK0   BANK1   BANK2
      Params:         0       0       0       0
      Locals:         1       0       0       0
      Temps:          4       0       0       0
      Totals:         5       0       0       0
Total ram usage:        5 bytes
 Hardware stack levels used:    1
 This function calls:
		Nothing
 This function is called by:
		Interrupt level 2
 This function uses a non-reentrant model



MODULE INFORMATION

Module		Function		Class		Link	Load	Size
/Applications/microchip/xc8/v2.00/pic/sources/c90/common/Umul16.c
		___wmul        		CODE           	148A	0000	39

/Applications/microchip/xc8/v2.00/pic/sources/c90/common/Umul16.c estimated size: 39

/Applications/microchip/xc8/v2.00/pic/sources/c90/common/lwdiv.c
		___lwdiv       		CODE           	12C4	0000	83

/Applications/microchip/xc8/v2.00/pic/sources/c90/common/lwdiv.c estimated size: 83

/Applications/microchip/xc8/v2.00/pic/sources/c90/common/awdiv.c
		___awdiv       		CODE           	10EE	0000	133

/Applications/microchip/xc8/v2.00/pic/sources/c90/common/awdiv.c estimated size: 133

motor.c
		_turnLeft      		CODE           	0F2C	0000	151
		_stop          		CODE           	1266	0000	95
		_turnRight     		CODE           	0E96	0000	151
		_forwards      		CODE           	0FC2	0000	151
		_setMotorPWM   		CODE           	0B7C	0000	387
		_initPWM       		CODE           	14B0	0000	31
		_backwards     		CODE           	1058	0000	151

motor.c estimated size: 1117

rfid.c
		_interrupt_EUSART		CODE           	154E	0000	21
		_print_RFID    		CODE           	1172	0000	125
		_init_RFID     		CODE           	151E	0000	27

rfid.c estimated size: 173

shared
		_dpowers       		SMALLCONST     	0301	0000	11
		__initialization		CODE           	1430	0000	33

shared estimated size: 44

ir.c
		_read_IR       		CODE           	080C	0000	479
		_init_capture  		CODE           	14EA	0000	27
		_init_TIMER5   		CODE           	1504	0000	27

ir.c estimated size: 533

lcd.c
		_LCD_clear     		CODE           	14CE	0000	29
		_E_TOG         		CODE           	1538	0000	23
		_LCD_string    		CODE           	13D0	0000	49
		_print_IR      		CODE           	0DE8	0000	175
		_LCD_init      		CODE           	0CFE	0000	235
		_LCD_out       		CODE           	11EE	0000	121
		_LCD_send      		CODE           	145E	0000	45
		_LCD_line      		CODE           	1400	0000	49

lcd.c estimated size: 726

main.c
		_main          		CODE           	034E	0000	1215
		_initTIMER0    		CODE           	1562	0000	21
		_delay_tenth_s 		CODE           	1398	0000	57
		_store         		CODE           	1358	0000	65
		_InterruptHandlerHigh		CODE           	0008	0000	125

main.c estimated size: 1483

/Applications/microchip/xc8/v2.00/pic/sources/c90/common/doprnt.c
		_sprintf       		CODE           	09EA	0000	403

/Applications/microchip/xc8/v2.00/pic/sources/c90/common/doprnt.c estimated size: 403

/Applications/microchip/xc8/v2.00/pic/sources/c90/common/lwmod.c
		___lwmod       		CODE           	1316	0000	67

/Applications/microchip/xc8/v2.00/pic/sources/c90/common/lwmod.c estimated size: 67

